target datalayout = "e-m:e-p270:32:32-p271:32:32-p272:64:64-i64:64-i128:128-f80:128-n8:16:32:64-S128"
target triple = "x86_64-pc-linux-gnu"

%struct.darktable_t = type { %struct.dt_codepath_t, i32, i32, ptr, ptr, ptr, ptr, ptr, ptr, ptr, ptr, ptr, ptr, ptr, ptr, ptr, ptr, ptr, ptr, ptr, ptr, ptr, ptr, ptr, ptr, ptr, ptr, ptr, ptr, ptr, [64 x %struct.dt_pthread_mutex_t], %struct.dt_pthread_mutex_t, %struct.dt_pthread_mutex_t, %struct.dt_pthread_mutex_t, %struct.dt_pthread_mutex_t, %struct.dt_pthread_mutex_t, ptr, ptr, ptr, ptr, ptr, ptr, ptr, ptr, ptr, ptr, ptr, ptr, ptr, %struct.dt_lua_state_t, ptr, double, ptr, i32, [47 x i32], i32, i32, ptr, ptr, %struct.dt_sys_resources_t, %struct.dt_backthumb_t, %struct.dt_gimp_t }
%struct.dt_codepath_t = type { i8, [3 x i8] }
%struct.dt_pthread_mutex_t = type { %union.pthread_mutex_t }
%union.pthread_mutex_t = type { %struct.__pthread_mutex_s }
%struct.__pthread_mutex_s = type { i32, i32, i32, i32, i32, i16, i16, %struct.__pthread_internal_list }
%struct.__pthread_internal_list = type { ptr, ptr }
%struct.dt_lua_state_t = type { i32 }
%struct.dt_sys_resources_t = type { i64, i64, ptr, ptr, i32 }
%struct.dt_backthumb_t = type { double, double, i32, i32, i32, i32 }
%struct.dt_gimp_t = type { i32, ptr, ptr, i32, i32 }
%struct._image_pos = type { float, float, float, float }
%struct._image_box = type { i32, i32, i32, i32, i32, i32, i32, i32, i32, i32, %struct._image_pos, %struct._image_pos, %struct._image_pos, ptr }
%struct.dt_images_box = type { i32, i32, i32, [20 x %struct._image_box], float, float, float, float, %struct.dt_screen_pos }
%struct.dt_screen_pos = type { %struct._image_pos, %struct._image_pos, i32 }

@darktable = external global %struct.darktable_t, align 8
@.str = private unnamed_addr constant [57 x i8] c"[printing] screen/page  (%3.1f, %3.1f) -> (%3.1f, %3.1f)\00", align 1
@.str.1 = private unnamed_addr constant [57 x i8] c"[printing] screen/parea (%3.1f, %3.1f) -> (%3.1f, %3.1f)\00", align 1

; Function Attrs: nounwind uwtable
define void @dt_printing_setup_display(ptr noundef %0, float noundef %1, float noundef %2, float noundef %3, float noundef %4, float noundef %5, float noundef %6, float noundef %7, float noundef %8, i32 noundef %9) #0 {
  %11 = alloca ptr, align 8
  %12 = alloca float, align 4
  %13 = alloca float, align 4
  %14 = alloca float, align 4
  %15 = alloca float, align 4
  %16 = alloca float, align 4
  %17 = alloca float, align 4
  %18 = alloca float, align 4
  %19 = alloca float, align 4
  %20 = alloca i32, align 4
  %21 = alloca i32, align 4
  %22 = alloca ptr, align 8
  store ptr %0, ptr %11, align 8, !tbaa !33
  store float %1, ptr %12, align 4, !tbaa !45
  store float %2, ptr %13, align 4, !tbaa !45
  store float %3, ptr %14, align 4, !tbaa !45
  store float %4, ptr %15, align 4, !tbaa !45
  store float %5, ptr %16, align 4, !tbaa !45
  store float %6, ptr %17, align 4, !tbaa !45
  store float %7, ptr %18, align 4, !tbaa !45
  store float %8, ptr %19, align 4, !tbaa !45
  store i32 %9, ptr %20, align 4, !tbaa !35
  %23 = load float, ptr %12, align 4, !tbaa !45
  %24 = load ptr, ptr %11, align 8, !tbaa !33
  %25 = getelementptr inbounds nuw %struct.dt_images_box, ptr %24, i32 0, i32 8
  %26 = getelementptr inbounds nuw %struct.dt_screen_pos, ptr %25, i32 0, i32 0
  %27 = getelementptr inbounds nuw %struct._image_pos, ptr %26, i32 0, i32 0
  store float %23, ptr %27, align 8, !tbaa !50
  %28 = load float, ptr %13, align 4, !tbaa !45
  %29 = load ptr, ptr %11, align 8, !tbaa !33
  %30 = getelementptr inbounds nuw %struct.dt_images_box, ptr %29, i32 0, i32 8
  %31 = getelementptr inbounds nuw %struct.dt_screen_pos, ptr %30, i32 0, i32 0
  %32 = getelementptr inbounds nuw %struct._image_pos, ptr %31, i32 0, i32 1
  store float %28, ptr %32, align 4, !tbaa !51
  %33 = load float, ptr %14, align 4, !tbaa !45
  %34 = load ptr, ptr %11, align 8, !tbaa !33
  %35 = getelementptr inbounds nuw %struct.dt_images_box, ptr %34, i32 0, i32 8
  %36 = getelementptr inbounds nuw %struct.dt_screen_pos, ptr %35, i32 0, i32 0
  %37 = getelementptr inbounds nuw %struct._image_pos, ptr %36, i32 0, i32 2
  store float %33, ptr %37, align 8, !tbaa !52
  %38 = load float, ptr %15, align 4, !tbaa !45
  %39 = load ptr, ptr %11, align 8, !tbaa !33
  %40 = getelementptr inbounds nuw %struct.dt_images_box, ptr %39, i32 0, i32 8
  %41 = getelementptr inbounds nuw %struct.dt_screen_pos, ptr %40, i32 0, i32 0
  %42 = getelementptr inbounds nuw %struct._image_pos, ptr %41, i32 0, i32 3
  store float %38, ptr %42, align 4, !tbaa !53
  %43 = load float, ptr %16, align 4, !tbaa !45
  %44 = load ptr, ptr %11, align 8, !tbaa !33
  %45 = getelementptr inbounds nuw %struct.dt_images_box, ptr %44, i32 0, i32 8
  %46 = getelementptr inbounds nuw %struct.dt_screen_pos, ptr %45, i32 0, i32 1
  %47 = getelementptr inbounds nuw %struct._image_pos, ptr %46, i32 0, i32 0
  store float %43, ptr %47, align 8, !tbaa !54
  %48 = load float, ptr %17, align 4, !tbaa !45
  %49 = load ptr, ptr %11, align 8, !tbaa !33
  %50 = getelementptr inbounds nuw %struct.dt_images_box, ptr %49, i32 0, i32 8
  %51 = getelementptr inbounds nuw %struct.dt_screen_pos, ptr %50, i32 0, i32 1
  %52 = getelementptr inbounds nuw %struct._image_pos, ptr %51, i32 0, i32 1
  store float %48, ptr %52, align 4, !tbaa !55
  %53 = load float, ptr %18, align 4, !tbaa !45
  %54 = load ptr, ptr %11, align 8, !tbaa !33
  %55 = getelementptr inbounds nuw %struct.dt_images_box, ptr %54, i32 0, i32 8
  %56 = getelementptr inbounds nuw %struct.dt_screen_pos, ptr %55, i32 0, i32 1
  %57 = getelementptr inbounds nuw %struct._image_pos, ptr %56, i32 0, i32 2
  store float %53, ptr %57, align 8, !tbaa !56
  %58 = load float, ptr %19, align 4, !tbaa !45
  %59 = load ptr, ptr %11, align 8, !tbaa !33
  %60 = getelementptr inbounds nuw %struct.dt_images_box, ptr %59, i32 0, i32 8
  %61 = getelementptr inbounds nuw %struct.dt_screen_pos, ptr %60, i32 0, i32 1
  %62 = getelementptr inbounds nuw %struct._image_pos, ptr %61, i32 0, i32 3
  store float %58, ptr %62, align 4, !tbaa !57
  br label %63

63:                                               ; preds = %10
  %64 = load i32, ptr getelementptr inbounds nuw (%struct.darktable_t, ptr @darktable, i32 0, i32 2), align 8, !tbaa !58
  %65 = and i32 32768, %64
  %66 = icmp ne i32 %65, 0
  br i1 %66, label %67, label %81

67:                                               ; preds = %63
  %68 = load i32, ptr getelementptr inbounds nuw (%struct.darktable_t, ptr @darktable, i32 0, i32 2), align 8, !tbaa !58
  %69 = xor i32 %68, -1
  %70 = and i32 0, %69
  %71 = icmp ne i32 %70, 0
  br i1 %71, label %81, label %72

72:                                               ; preds = %67
  %73 = load float, ptr %12, align 4, !tbaa !45
  %74 = fpext reassoc nsz arcp contract afn float %73 to double
  %75 = load float, ptr %13, align 4, !tbaa !45
  %76 = fpext reassoc nsz arcp contract afn float %75 to double
  %77 = load float, ptr %14, align 4, !tbaa !45
  %78 = fpext reassoc nsz arcp contract afn float %77 to double
  %79 = load float, ptr %15, align 4, !tbaa !45
  %80 = fpext reassoc nsz arcp contract afn float %79 to double
  call void (ptr, ...) @dt_print_ext(ptr noundef @.str, double noundef %74, double noundef %76, double noundef %78, double noundef %80)
  br label %81

81:                                               ; preds = %72, %67, %63
  br label %82

82:                                               ; preds = %81
  br label %83

83:                                               ; preds = %82
  %84 = load i32, ptr getelementptr inbounds nuw (%struct.darktable_t, ptr @darktable, i32 0, i32 2), align 8, !tbaa !58
  %85 = and i32 32768, %84
  %86 = icmp ne i32 %85, 0
  br i1 %86, label %87, label %101

87:                                               ; preds = %83
  %88 = load i32, ptr getelementptr inbounds nuw (%struct.darktable_t, ptr @darktable, i32 0, i32 2), align 8, !tbaa !58
  %89 = xor i32 %88, -1
  %90 = and i32 0, %89
  %91 = icmp ne i32 %90, 0
  br i1 %91, label %101, label %92

92:                                               ; preds = %87
  %93 = load float, ptr %16, align 4, !tbaa !45
  %94 = fpext reassoc nsz arcp contract afn float %93 to double
  %95 = load float, ptr %17, align 4, !tbaa !45
  %96 = fpext reassoc nsz arcp contract afn float %95 to double
  %97 = load float, ptr %18, align 4, !tbaa !45
  %98 = fpext reassoc nsz arcp contract afn float %97 to double
  %99 = load float, ptr %19, align 4, !tbaa !45
  %100 = fpext reassoc nsz arcp contract afn float %99 to double
  call void (ptr, ...) @dt_print_ext(ptr noundef @.str.1, double noundef %94, double noundef %96, double noundef %98, double noundef %100)
  br label %101

101:                                              ; preds = %92, %87, %83
  br label %102

102:                                              ; preds = %101
  %103 = load i32, ptr %20, align 4, !tbaa !35
  %104 = load ptr, ptr %11, align 8, !tbaa !33
  %105 = getelementptr inbounds nuw %struct.dt_images_box, ptr %104, i32 0, i32 8
  %106 = getelementptr inbounds nuw %struct.dt_screen_pos, ptr %105, i32 0, i32 2
  store i32 %103, ptr %106, align 8, !tbaa !96
  call void @llvm.lifetime.start.p0(i64 4, ptr %21) #5
  store i32 0, ptr %21, align 4, !tbaa !35
  br label %107

107:                                              ; preds = %167, %102
  %108 = load i32, ptr %21, align 4, !tbaa !35
  %109 = load ptr, ptr %11, align 8, !tbaa !33
  %110 = getelementptr inbounds nuw %struct.dt_images_box, ptr %109, i32 0, i32 2
  %111 = load i32, ptr %110, align 8, !tbaa !36
  %112 = icmp slt i32 %108, %111
  br i1 %112, label %114, label %113

113:                                              ; preds = %107
  call void @llvm.lifetime.end.p0(i64 4, ptr %21) #5
  br label %170

114:                                              ; preds = %107
  call void @llvm.lifetime.start.p0(i64 8, ptr %22) #5
  %115 = load ptr, ptr %11, align 8, !tbaa !33
  %116 = getelementptr inbounds nuw %struct.dt_images_box, ptr %115, i32 0, i32 3
  %117 = load i32, ptr %21, align 4, !tbaa !35
  %118 = sext i32 %117 to i64
  %119 = getelementptr inbounds [20 x %struct._image_box], ptr %116, i64 0, i64 %118
  store ptr %119, ptr %22, align 8, !tbaa !17
  %120 = load ptr, ptr %22, align 8, !tbaa !17
  %121 = getelementptr inbounds nuw %struct._image_box, ptr %120, i32 0, i32 10
  %122 = getelementptr inbounds nuw %struct._image_pos, ptr %121, i32 0, i32 0
  %123 = load float, ptr %122, align 8, !tbaa !97
  %124 = fcmp reassoc nsz arcp contract afn ogt float %123, 0.000000e+00
  br i1 %124, label %125, label %166

125:                                              ; preds = %114
  %126 = load float, ptr %14, align 4, !tbaa !45
  %127 = load ptr, ptr %22, align 8, !tbaa !17
  %128 = getelementptr inbounds nuw %struct._image_box, ptr %127, i32 0, i32 10
  %129 = getelementptr inbounds nuw %struct._image_pos, ptr %128, i32 0, i32 0
  %130 = load float, ptr %129, align 8, !tbaa !97
  %131 = fmul reassoc nsz arcp contract afn float %126, %130
  %132 = load float, ptr %12, align 4, !tbaa !45
  %133 = fadd reassoc nsz arcp contract afn float %131, %132
  %134 = load ptr, ptr %22, align 8, !tbaa !17
  %135 = getelementptr inbounds nuw %struct._image_box, ptr %134, i32 0, i32 11
  %136 = getelementptr inbounds nuw %struct._image_pos, ptr %135, i32 0, i32 0
  store float %133, ptr %136, align 8, !tbaa !46
  %137 = load float, ptr %15, align 4, !tbaa !45
  %138 = load ptr, ptr %22, align 8, !tbaa !17
  %139 = getelementptr inbounds nuw %struct._image_box, ptr %138, i32 0, i32 10
  %140 = getelementptr inbounds nuw %struct._image_pos, ptr %139, i32 0, i32 1
  %141 = load float, ptr %140, align 4, !tbaa !98
  %142 = fmul reassoc nsz arcp contract afn float %137, %141
  %143 = load float, ptr %13, align 4, !tbaa !45
  %144 = fadd reassoc nsz arcp contract afn float %142, %143
  %145 = load ptr, ptr %22, align 8, !tbaa !17
  %146 = getelementptr inbounds nuw %struct._image_box, ptr %145, i32 0, i32 11
  %147 = getelementptr inbounds nuw %struct._image_pos, ptr %146, i32 0, i32 1
  store float %144, ptr %147, align 4, !tbaa !48
  %148 = load float, ptr %14, align 4, !tbaa !45
  %149 = load ptr, ptr %22, align 8, !tbaa !17
  %150 = getelementptr inbounds nuw %struct._image_box, ptr %149, i32 0, i32 10
  %151 = getelementptr inbounds nuw %struct._image_pos, ptr %150, i32 0, i32 2
  %152 = load float, ptr %151, align 8, !tbaa !99
  %153 = fmul reassoc nsz arcp contract afn float %148, %152
  %154 = load ptr, ptr %22, align 8, !tbaa !17
  %155 = getelementptr inbounds nuw %struct._image_box, ptr %154, i32 0, i32 11
  %156 = getelementptr inbounds nuw %struct._image_pos, ptr %155, i32 0, i32 2
  store float %153, ptr %156, align 8, !tbaa !47
  %157 = load float, ptr %15, align 4, !tbaa !45
  %158 = load ptr, ptr %22, align 8, !tbaa !17
  %159 = getelementptr inbounds nuw %struct._image_box, ptr %158, i32 0, i32 10
  %160 = getelementptr inbounds nuw %struct._image_pos, ptr %159, i32 0, i32 3
  %161 = load float, ptr %160, align 4, !tbaa !100
  %162 = fmul reassoc nsz arcp contract afn float %157, %161
  %163 = load ptr, ptr %22, align 8, !tbaa !17
  %164 = getelementptr inbounds nuw %struct._image_box, ptr %163, i32 0, i32 11
  %165 = getelementptr inbounds nuw %struct._image_pos, ptr %164, i32 0, i32 3
  store float %162, ptr %165, align 4, !tbaa !49
  br label %166

166:                                              ; preds = %125, %114
  call void @llvm.lifetime.end.p0(i64 8, ptr %22) #5
  br label %167

167:                                              ; preds = %166
  %168 = load i32, ptr %21, align 4, !tbaa !35
  %169 = add nsw i32 %168, 1
  store i32 %169, ptr %21, align 4, !tbaa !35
  br label %107

170:                                              ; preds = %113
  ret void
}