; Function Attrs: nounwind uwtable
define void @dt_printing_setup_display(ptr noundef captures(none) initializes((1952, 1988)) %0, float noundef %1, float noundef %2, float noundef %3, float noundef %4, float noundef %5, float noundef %6, float noundef %7, float noundef %8, i32 noundef %9) local_unnamed_addr #6 {
  %11 = getelementptr inbounds nuw i8, ptr %0, i64 1952
  store float %1, ptr %11, align 8, !tbaa !24
  %12 = getelementptr inbounds nuw i8, ptr %0, i64 1956
  store float %2, ptr %12, align 4, !tbaa !25
  %13 = getelementptr inbounds nuw i8, ptr %0, i64 1960
  store float %3, ptr %13, align 8, !tbaa !26
  %14 = getelementptr inbounds nuw i8, ptr %0, i64 1964
  store float %4, ptr %14, align 4, !tbaa !27
  %15 = getelementptr inbounds nuw i8, ptr %0, i64 1968
  store float %5, ptr %15, align 8, !tbaa !32
  %16 = getelementptr inbounds nuw i8, ptr %0, i64 1972
  store float %6, ptr %16, align 4, !tbaa !33
  %17 = getelementptr inbounds nuw i8, ptr %0, i64 1976
  store float %7, ptr %17, align 8, !tbaa !34
  %18 = getelementptr inbounds nuw i8, ptr %0, i64 1980
  store float %8, ptr %18, align 4, !tbaa !35
  %19 = load i32, ptr getelementptr inbounds nuw (i8, ptr @darktable, i64 8), align 8, !tbaa !36
  %20 = and i32 %19, 32768
  %.not = icmp eq i32 %20, 0
  br i1 %.not, label %.thread, label %21

21:                                               ; preds = %10
  %22 = fpext reassoc nsz arcp contract afn float %1 to double
  %23 = fpext reassoc nsz arcp contract afn float %2 to double
  %24 = fpext reassoc nsz arcp contract afn float %3 to double
  %25 = fpext reassoc nsz arcp contract afn float %4 to double
  tail call void (ptr, ...) @dt_print_ext(ptr noundef nonnull @.str, double noundef %22, double noundef %23, double noundef %24, double noundef %25) #10
  %.pre = load i32, ptr getelementptr inbounds nuw (i8, ptr @darktable, i64 8), align 8, !tbaa !36
  %.pre49 = and i32 %.pre, 32768
  %26 = icmp eq i32 %.pre49, 0
  br i1 %26, label %.thread, label %27

27:                                               ; preds = %21
  %28 = fpext reassoc nsz arcp contract afn float %5 to double
  %29 = fpext reassoc nsz arcp contract afn float %6 to double
  %30 = fpext reassoc nsz arcp contract afn float %7 to double
  %31 = fpext reassoc nsz arcp contract afn float %8 to double
  tail call void (ptr, ...) @dt_print_ext(ptr noundef nonnull @.str.1, double noundef %28, double noundef %29, double noundef %30, double noundef %31) #10
  br label %.thread

.thread:                                          ; preds = %10, %21, %27
  %32 = getelementptr inbounds nuw i8, ptr %0, i64 1984
  store i32 %9, ptr %32, align 8, !tbaa !74
  %33 = getelementptr inbounds nuw i8, ptr %0, i64 8
  %34 = load i32, ptr %33, align 8, !tbaa !15
  %35 = icmp sgt i32 %34, 0
  br i1 %35, label %.lr.ph, label %._crit_edge

.lr.ph:                                           ; preds = %.thread
  %36 = getelementptr inbounds nuw i8, ptr %0, i64 16
  %wide.trip.count = zext nneg i32 %34 to i64
  br label %37

._crit_edge:                                      ; preds = %59, %.thread
  ret void

37:                                               ; preds = %.lr.ph, %59
  %indvars.iv = phi i64 [ 0, %.lr.ph ], [ %indvars.iv.next, %59 ]
  %38 = getelementptr inbounds nuw [20 x %struct._image_box], ptr %36, i64 0, i64 %indvars.iv
  %39 = getelementptr inbounds nuw i8, ptr %38, i64 40
  %40 = load float, ptr %39, align 8, !tbaa !75
  %41 = fcmp reassoc nsz arcp contract afn ogt float %40, 0.000000e+00
  br i1 %41, label %42, label %59

42:                                               ; preds = %37
  %43 = fmul reassoc nsz arcp contract afn float %40, %3
  %44 = fadd reassoc nsz arcp contract afn float %43, %1
  %45 = getelementptr inbounds nuw i8, ptr %38, i64 56
  store float %44, ptr %45, align 8, !tbaa !20
  %46 = getelementptr inbounds nuw i8, ptr %38, i64 44
  %47 = load float, ptr %46, align 4, !tbaa !76
  %48 = fmul reassoc nsz arcp contract afn float %47, %4
  %49 = fadd reassoc nsz arcp contract afn float %48, %2
  %50 = getelementptr inbounds nuw i8, ptr %38, i64 60
  store float %49, ptr %50, align 4, !tbaa !22
  %51 = getelementptr inbounds nuw i8, ptr %38, i64 48
  %52 = load float, ptr %51, align 8, !tbaa !77
  %53 = fmul reassoc nsz arcp contract afn float %52, %3
  %54 = getelementptr inbounds nuw i8, ptr %38, i64 64
  store float %53, ptr %54, align 8, !tbaa !21
  %55 = getelementptr inbounds nuw i8, ptr %38, i64 52
  %56 = load float, ptr %55, align 4, !tbaa !78
  %57 = fmul reassoc nsz arcp contract afn float %56, %4
  %58 = getelementptr inbounds nuw i8, ptr %38, i64 68
  store float %57, ptr %58, align 4, !tbaa !23
  br label %59

59:                                               ; preds = %42, %37
  %indvars.iv.next = add nuw nsw i64 %indvars.iv, 1
  %exitcond.not = icmp eq i64 %indvars.iv.next, %wide.trip.count
  br i1 %exitcond.not, label %._crit_edge, label %37
}